target datalayout = "e-m:e-p270:32:32-p271:32:32-p272:64:64-i64:64-i128:128-f80:128-n8:16:32:64-S128"
target triple = "x86_64-unknown-linux-gnu"

%"class.std::__cxx11::basic_string" = type { %"struct.std::__cxx11::basic_string<char>::_Alloc_hider", i64, %union.anon }
%"struct.std::__cxx11::basic_string<char>::_Alloc_hider" = type { ptr }
%union.anon = type { i64, [8 x i8] }
%"class.cvc5::internal::theory::Valuation" = type { ptr }
%"class.cvc5::internal::theory::arith::TheoryArith" = type { %"class.cvc5::internal::theory::Theory", %"class.cvc5::internal::TimerStat", %"class.cvc5::internal::theory::TheoryState", %"class.cvc5::internal::theory::arith::InferenceManager", %"class.cvc5::internal::theory::arith::PreprocessRewriteEq", %"class.cvc5::internal::theory::arith::BranchAndBound", %"class.std::unique_ptr.70", ptr, %"class.std::unique_ptr.78", %"class.cvc5::internal::theory::arith::OperatorElim", %"class.cvc5::internal::theory::arith::ArithPreprocess", %"class.cvc5::internal::theory::arith::ArithRewriter", %"class.std::map.109", %"class.std::map.109", %"class.cvc5::internal::theory::arith::ArithSubs", i8, %"class.cvc5::internal::theory::arith::ArithProofRuleChecker" }
%"class.cvc5::internal::theory::Theory" = type { %"class.cvc5::internal::EnvObj", %"class.std::__cxx11::basic_string", %"class.cvc5::internal::TimerStat", %"class.cvc5::internal::TimerStat", %"class.cvc5::context::CDList", ptr, %"class.cvc5::internal::theory::Valuation", ptr, %"class.std::unique_ptr", ptr, ptr, ptr, ptr, i32, [4 x i8], %"class.cvc5::context::CDList.5", %"class.cvc5::context::CDO", %"class.cvc5::context::CDO", ptr, ptr }
%"class.cvc5::internal::EnvObj" = type { ptr, ptr }
%"class.cvc5::context::CDList" = type <{ %"class.cvc5::context::ContextObj", %"class.std::vector", i64, i8, %"class.cvc5::context::DefaultCleanUp", [6 x i8] }>
%"class.cvc5::context::ContextObj" = type { ptr, ptr, ptr, ptr, ptr }
%"class.std::vector" = type { %"struct.std::_Vector_base" }
%"struct.std::_Vector_base" = type { %"struct.std::_Vector_base<cvc5::internal::NodeTemplate<false>, std::allocator<cvc5::internal::NodeTemplate<false>>>::_Vector_impl" }
%"struct.std::_Vector_base<cvc5::internal::NodeTemplate<false>, std::allocator<cvc5::internal::NodeTemplate<false>>>::_Vector_impl" = type { %"struct.std::_Vector_base<cvc5::internal::NodeTemplate<false>, std::allocator<cvc5::internal::NodeTemplate<false>>>::_Vector_impl_data" }
%"struct.std::_Vector_base<cvc5::internal::NodeTemplate<false>, std::allocator<cvc5::internal::NodeTemplate<false>>>::_Vector_impl_data" = type { ptr, ptr, ptr }
%"class.cvc5::context::DefaultCleanUp" = type { i8 }
%"class.std::unique_ptr" = type { %"struct.std::__uniq_ptr_data" }
%"struct.std::__uniq_ptr_data" = type { %"class.std::__uniq_ptr_impl" }
%"class.std::__uniq_ptr_impl" = type { %"class.std::tuple" }
%"class.std::tuple" = type { %"struct.std::_Tuple_impl" }
%"struct.std::_Tuple_impl" = type { %"struct.std::_Head_base.4" }
%"struct.std::_Head_base.4" = type { ptr }
%"class.cvc5::context::CDList.5" = type <{ %"class.cvc5::context::ContextObj", %"class.std::vector.6", i64, i8, %"class.cvc5::context::DefaultCleanUp.11", [6 x i8] }>
%"class.std::vector.6" = type { %"struct.std::_Vector_base.7" }
%"struct.std::_Vector_base.7" = type { %"struct.std::_Vector_base<cvc5::internal::theory::Assertion, std::allocator<cvc5::internal::theory::Assertion>>::_Vector_impl" }
%"struct.std::_Vector_base<cvc5::internal::theory::Assertion, std::allocator<cvc5::internal::theory::Assertion>>::_Vector_impl" = type { %"struct.std::_Vector_base<cvc5::internal::theory::Assertion, std::allocator<cvc5::internal::theory::Assertion>>::_Vector_impl_data" }
%"struct.std::_Vector_base<cvc5::internal::theory::Assertion, std::allocator<cvc5::internal::theory::Assertion>>::_Vector_impl_data" = type { ptr, ptr, ptr }
%"class.cvc5::context::DefaultCleanUp.11" = type { i8 }
%"class.cvc5::context::CDO" = type <{ %"class.cvc5::context::ContextObj", i32, [4 x i8] }>
%"class.cvc5::internal::TimerStat" = type { ptr }
%"class.cvc5::internal::theory::TheoryState" = type { %"class.cvc5::internal::EnvObj", %"class.cvc5::internal::theory::Valuation", ptr, %"class.cvc5::context::CDO.13" }
%"class.cvc5::context::CDO.13" = type <{ %"class.cvc5::context::ContextObj", i8, [7 x i8] }>
%"class.cvc5::internal::theory::arith::InferenceManager" = type { %"class.cvc5::internal::theory::InferenceManagerBuffered.base", %"class.std::vector.55", i8, %"class.cvc5::context::CDHashSet" }
%"class.cvc5::internal::theory::InferenceManagerBuffered.base" = type <{ %"class.cvc5::internal::theory::TheoryInferenceManager", %"class.std::vector.47", %"class.std::vector.47", %"class.std::map", i8 }>
%"class.cvc5::internal::theory::TheoryInferenceManager" = type { %"class.cvc5::internal::EnvObj", ptr, ptr, ptr, ptr, ptr, ptr, %"class.std::unique_ptr.15", %"class.std::unique_ptr.23", %"class.std::unique_ptr.31", %"class.std::unique_ptr.39", i8, %"class.cvc5::context::CDHashSet", %"class.cvc5::context::CDHashSet", i32, i32, i32, %"class.cvc5::internal::HistogramStat", %"class.cvc5::internal::HistogramStat", %"class.cvc5::internal::HistogramStat" }
%"class.std::unique_ptr.15" = type { %"struct.std::__uniq_ptr_data.16" }
%"struct.std::__uniq_ptr_data.16" = type { %"class.std::__uniq_ptr_impl.17" }
%"class.std::__uniq_ptr_impl.17" = type { %"class.std::tuple.18" }
%"class.std::tuple.18" = type { %"struct.std::_Tuple_impl.19" }
%"struct.std::_Tuple_impl.19" = type { %"struct.std::_Head_base.22" }
%"struct.std::_Head_base.22" = type { ptr }
%"class.std::unique_ptr.23" = type { %"struct.std::__uniq_ptr_data.24" }
%"struct.std::__uniq_ptr_data.24" = type { %"class.std::__uniq_ptr_impl.25" }
%"class.std::__uniq_ptr_impl.25" = type { %"class.std::tuple.26" }
%"class.std::tuple.26" = type { %"struct.std::_Tuple_impl.27" }
%"struct.std::_Tuple_impl.27" = type { %"struct.std::_Head_base.30" }
%"struct.std::_Head_base.30" = type { ptr }
%"class.std::unique_ptr.31" = type { %"struct.std::__uniq_ptr_data.32" }
%"struct.std::__uniq_ptr_data.32" = type { %"class.std::__uniq_ptr_impl.33" }
%"class.std::__uniq_ptr_impl.33" = type { %"class.std::tuple.34" }
%"class.std::tuple.34" = type { %"struct.std::_Tuple_impl.35" }
%"struct.std::_Tuple_impl.35" = type { %"struct.std::_Head_base.38" }
%"struct.std::_Head_base.38" = type { ptr }
%"class.std::unique_ptr.39" = type { %"struct.std::__uniq_ptr_data.40" }
%"struct.std::__uniq_ptr_data.40" = type { %"class.std::__uniq_ptr_impl.41" }
%"class.std::__uniq_ptr_impl.41" = type { %"class.std::tuple.42" }
%"class.std::tuple.42" = type { %"struct.std::_Tuple_impl.43" }
%"struct.std::_Tuple_impl.43" = type { %"struct.std::_Head_base.46" }
%"struct.std::_Head_base.46" = type { ptr }
%"class.cvc5::internal::HistogramStat" = type { ptr }
%"class.std::vector.47" = type { %"struct.std::_Vector_base.48" }
%"struct.std::_Vector_base.48" = type { %"struct.std::_Vector_base<std::unique_ptr<cvc5::internal::theory::TheoryInference>, std::allocator<std::unique_ptr<cvc5::internal::theory::TheoryInference>>>::_Vector_impl" }
%"struct.std::_Vector_base<std::unique_ptr<cvc5::internal::theory::TheoryInference>, std::allocator<std::unique_ptr<cvc5::internal::theory::TheoryInference>>>::_Vector_impl" = type { %"struct.std::_Vector_base<std::unique_ptr<cvc5::internal::theory::TheoryInference>, std::allocator<std::unique_ptr<cvc5::internal::theory::TheoryInference>>>::_Vector_impl_data" }
%"struct.std::_Vector_base<std::unique_ptr<cvc5::internal::theory::TheoryInference>, std::allocator<std::unique_ptr<cvc5::internal::theory::TheoryInference>>>::_Vector_impl_data" = type { ptr, ptr, ptr }
%"class.std::map" = type { %"class.std::_Rb_tree" }
%"class.std::_Rb_tree" = type { %"struct.std::_Rb_tree<cvc5::internal::NodeTemplate<true>, std::pair<const cvc5::internal::NodeTemplate<true>, bool>, std::_Select1st<std::pair<const cvc5::internal::NodeTemplate<true>, bool>>, std::less<cvc5::internal::NodeTemplate<true>>>::_Rb_tree_impl" }
%"struct.std::_Rb_tree<cvc5::internal::NodeTemplate<true>, std::pair<const cvc5::internal::NodeTemplate<true>, bool>, std::_Select1st<std::pair<const cvc5::internal::NodeTemplate<true>, bool>>, std::less<cvc5::internal::NodeTemplate<true>>>::_Rb_tree_impl" = type { %"struct.std::_Rb_tree_key_compare", %"struct.std::_Rb_tree_header" }
%"struct.std::_Rb_tree_key_compare" = type { %"struct.std::less" }
%"struct.std::less" = type { i8 }
%"struct.std::_Rb_tree_header" = type { %"struct.std::_Rb_tree_node_base", i64 }
%"struct.std::_Rb_tree_node_base" = type { i32, ptr, ptr, ptr }
%"class.std::vector.55" = type { %"struct.std::_Vector_base.56" }
%"struct.std::_Vector_base.56" = type { %"struct.std::_Vector_base<std::unique_ptr<cvc5::internal::theory::SimpleTheoryLemma>, std::allocator<std::unique_ptr<cvc5::internal::theory::SimpleTheoryLemma>>>::_Vector_impl" }
%"struct.std::_Vector_base<std::unique_ptr<cvc5::internal::theory::SimpleTheoryLemma>, std::allocator<std::unique_ptr<cvc5::internal::theory::SimpleTheoryLemma>>>::_Vector_impl" = type { %"struct.std::_Vector_base<std::unique_ptr<cvc5::internal::theory::SimpleTheoryLemma>, std::allocator<std::unique_ptr<cvc5::internal::theory::SimpleTheoryLemma>>>::_Vector_impl_data" }
%"struct.std::_Vector_base<std::unique_ptr<cvc5::internal::theory::SimpleTheoryLemma>, std::allocator<std::unique_ptr<cvc5::internal::theory::SimpleTheoryLemma>>>::_Vector_impl_data" = type { ptr, ptr, ptr }
%"class.cvc5::context::CDHashSet" = type { %"class.cvc5::context::CDInsertHashMap" }
%"class.cvc5::context::CDInsertHashMap" = type { %"class.cvc5::context::ContextObj", ptr, i64 }
%"class.cvc5::internal::theory::arith::PreprocessRewriteEq" = type { %"class.cvc5::internal::EnvObj", %"class.cvc5::internal::EagerProofGenerator" }
%"class.cvc5::internal::EagerProofGenerator" = type { %"class.cvc5::internal::EnvObj", %"class.cvc5::internal::ProofGenerator", %"class.std::__cxx11::basic_string", %"class.cvc5::context::Context", %"class.cvc5::context::CDHashMap" }
%"class.cvc5::internal::ProofGenerator" = type { ptr }
%"class.cvc5::context::Context" = type { ptr, %"class.std::vector.60", ptr, ptr }
%"class.std::vector.60" = type { %"struct.std::_Vector_base.61" }
%"struct.std::_Vector_base.61" = type { %"struct.std::_Vector_base<cvc5::context::Scope *, std::allocator<cvc5::context::Scope *>>::_Vector_impl" }
%"struct.std::_Vector_base<cvc5::context::Scope *, std::allocator<cvc5::context::Scope *>>::_Vector_impl" = type { %"struct.std::_Vector_base<cvc5::context::Scope *, std::allocator<cvc5::context::Scope *>>::_Vector_impl_data" }
%"struct.std::_Vector_base<cvc5::context::Scope *, std::allocator<cvc5::context::Scope *>>::_Vector_impl_data" = type { ptr, ptr, ptr }
%"class.cvc5::context::CDHashMap" = type { %"class.cvc5::context::ContextObj", %"class.std::unordered_map", ptr, ptr }
%"class.std::unordered_map" = type { %"class.std::_Hashtable" }
%"class.std::_Hashtable" = type { ptr, i64, %"struct.std::__detail::_Hash_node_base", i64, %"struct.std::__detail::_Prime_rehash_policy", ptr }
%"struct.std::__detail::_Hash_node_base" = type { ptr }
%"struct.std::__detail::_Prime_rehash_policy" = type { float, i64 }
%"class.cvc5::internal::theory::arith::BranchAndBound" = type { %"class.cvc5::internal::EnvObj", ptr, ptr, ptr, %"class.std::unique_ptr.23" }
%"class.std::unique_ptr.70" = type { %"struct.std::__uniq_ptr_data.71" }
%"struct.std::__uniq_ptr_data.71" = type { %"class.std::__uniq_ptr_impl.72" }
%"class.std::__uniq_ptr_impl.72" = type { %"class.std::tuple.73" }
%"class.std::tuple.73" = type { %"struct.std::_Tuple_impl.74" }
%"struct.std::_Tuple_impl.74" = type { %"struct.std::_Head_base.77" }
%"struct.std::_Head_base.77" = type { ptr }
%"class.std::unique_ptr.78" = type { %"struct.std::__uniq_ptr_data.79" }
%"struct.std::__uniq_ptr_data.79" = type { %"class.std::__uniq_ptr_impl.80" }
%"class.std::__uniq_ptr_impl.80" = type { %"class.std::tuple.81" }
%"class.std::tuple.81" = type { %"struct.std::_Tuple_impl.82" }
%"struct.std::_Tuple_impl.82" = type { %"struct.std::_Head_base.85" }
%"struct.std::_Head_base.85" = type { ptr }
%"class.cvc5::internal::theory::arith::OperatorElim" = type { %"class.cvc5::internal::EagerProofGenerator", %"class.std::map.86" }
%"class.std::map.86" = type { %"class.std::_Rb_tree.87" }
%"class.std::_Rb_tree.87" = type { %"struct.std::_Rb_tree<cvc5::internal::SkolemFunId, std::pair<const cvc5::internal::SkolemFunId, cvc5::internal::NodeTemplate<true>>, std::_Select1st<std::pair<const cvc5::internal::SkolemFunId, cvc5::internal::NodeTemplate<true>>>, std::less<cvc5::internal::SkolemFunId>>::_Rb_tree_impl" }
%"struct.std::_Rb_tree<cvc5::internal::SkolemFunId, std::pair<const cvc5::internal::SkolemFunId, cvc5::internal::NodeTemplate<true>>, std::_Select1st<std::pair<const cvc5::internal::SkolemFunId, cvc5::internal::NodeTemplate<true>>>, std::less<cvc5::internal::SkolemFunId>>::_Rb_tree_impl" = type { %"struct.std::_Rb_tree_key_compare.91", %"struct.std::_Rb_tree_header" }
%"struct.std::_Rb_tree_key_compare.91" = type { %"struct.std::less.92" }
%"struct.std::less.92" = type { i8 }
%"class.cvc5::internal::theory::arith::ArithPreprocess" = type { %"class.cvc5::internal::EnvObj", ptr, ptr, %"class.cvc5::context::CDHashMap.94" }
%"class.cvc5::context::CDHashMap.94" = type { %"class.cvc5::context::ContextObj", %"class.std::unordered_map.95", ptr, ptr }
%"class.std::unordered_map.95" = type { %"class.std::_Hashtable.96" }
%"class.std::_Hashtable.96" = type { ptr, i64, %"struct.std::__detail::_Hash_node_base", i64, %"struct.std::__detail::_Prime_rehash_policy", ptr }
%"class.cvc5::internal::theory::arith::ArithRewriter" = type { %"class.cvc5::internal::theory::TheoryRewriter", ptr }
%"class.cvc5::internal::theory::TheoryRewriter" = type { ptr }
%"class.std::map.109" = type { %"class.std::_Rb_tree.110" }
%"class.std::_Rb_tree.110" = type { %"struct.std::_Rb_tree<cvc5::internal::NodeTemplate<true>, std::pair<const cvc5::internal::NodeTemplate<true>, cvc5::internal::NodeTemplate<true>>, std::_Select1st<std::pair<const cvc5::internal::NodeTemplate<true>, cvc5::internal::NodeTemplate<true>>>, std::less<cvc5::internal::NodeTemplate<true>>>::_Rb_tree_impl" }
%"struct.std::_Rb_tree<cvc5::internal::NodeTemplate<true>, std::pair<const cvc5::internal::NodeTemplate<true>, cvc5::internal::NodeTemplate<true>>, std::_Select1st<std::pair<const cvc5::internal::NodeTemplate<true>, cvc5::internal::NodeTemplate<true>>>, std::less<cvc5::internal::NodeTemplate<true>>>::_Rb_tree_impl" = type { %"struct.std::_Rb_tree_key_compare", %"struct.std::_Rb_tree_header" }
%"class.cvc5::internal::theory::arith::ArithSubs" = type { %"class.cvc5::internal::Subs" }
%"class.cvc5::internal::Subs" = type { ptr, %"class.std::vector.114", %"class.std::vector.114" }
%"class.std::vector.114" = type { %"struct.std::_Vector_base.115" }
%"struct.std::_Vector_base.115" = type { %"struct.std::_Vector_base<cvc5::internal::NodeTemplate<true>, std::allocator<cvc5::internal::NodeTemplate<true>>>::_Vector_impl" }
%"struct.std::_Vector_base<cvc5::internal::NodeTemplate<true>, std::allocator<cvc5::internal::NodeTemplate<true>>>::_Vector_impl" = type { %"struct.std::_Vector_base<cvc5::internal::NodeTemplate<true>, std::allocator<cvc5::internal::NodeTemplate<true>>>::_Vector_impl_data" }
%"struct.std::_Vector_base<cvc5::internal::NodeTemplate<true>, std::allocator<cvc5::internal::NodeTemplate<true>>>::_Vector_impl_data" = type { ptr, ptr, ptr }
%"class.cvc5::internal::theory::arith::ArithProofRuleChecker" = type { %"class.cvc5::internal::ProofRuleChecker", %"class.cvc5::internal::theory::arith::nl::ExtProofRuleChecker", %"class.cvc5::internal::theory::arith::nl::transcendental::TranscendentalProofRuleChecker" }
%"class.cvc5::internal::ProofRuleChecker" = type { ptr }
%"class.cvc5::internal::theory::arith::nl::ExtProofRuleChecker" = type { %"class.cvc5::internal::ProofRuleChecker" }
%"class.cvc5::internal::theory::arith::nl::transcendental::TranscendentalProofRuleChecker" = type { %"class.cvc5::internal::ProofRuleChecker" }

; Function Attrs: mustprogress uwtable
define hidden noundef zeroext i1 @_ZN4cvc58internal6theory5arith11TheoryArith16collectModelInfoEPNS1_11TheoryModelERKSt3setINS0_12NodeTemplateILb1EEESt4lessIS8_ESaIS8_EE(ptr noundef nonnull align 8 dereferenceable(1856) %this, ptr noundef %m, ptr noundef nonnull align 8 dereferenceable(48) %termSet) unnamed_addr #4 align 2 {
entry:
  %retval = alloca i1, align 1
  %this.addr = alloca ptr, align 8
  %m.addr = alloca ptr, align 8
  %termSet.addr = alloca ptr, align 8
  store ptr %this, ptr %this.addr, align 8
  store ptr %m, ptr %m.addr, align 8
  store ptr %termSet, ptr %termSet.addr, align 8
  %this1 = load ptr, ptr %this.addr, align 8
  %d_im = getelementptr inbounds %"class.cvc5::internal::theory::arith::TheoryArith", ptr %this1, i32 0, i32 3
  %call = call noundef zeroext i1 @_ZNK4cvc58internal6theory24InferenceManagerBuffered15hasPendingLemmaEv(ptr noundef nonnull align 8 dereferenceable(353) %d_im)
  br i1 %call, label %if.then, label %if.end

if.then:                                          ; preds = %entry
  store i1 true, ptr %retval, align 1
  br label %return

if.end:                                           ; preds = %entry
  %0 = load ptr, ptr %m.addr, align 8
  %1 = load ptr, ptr %termSet.addr, align 8
  %vtable = load ptr, ptr %this1, align 8
  %vfn = getelementptr inbounds ptr, ptr %vtable, i64 23
  %2 = load ptr, ptr %vfn, align 8
  %call2 = call noundef zeroext i1 %2(ptr noundef nonnull align 8 dereferenceable(1856) %this1, ptr noundef %0, ptr noundef nonnull align 8 dereferenceable(48) %1)
  store i1 %call2, ptr %retval, align 1
  br label %return

return:                                           ; preds = %if.end, %if.then
  %3 = load i1, ptr %retval, align 1
  ret i1 %3
}