; Function Attrs: mustprogress uwtable
define hidden noundef zeroext i1 @_ZN4cvc58internal6theory5arith11TheoryArith16collectModelInfoEPNS1_11TheoryModelERKSt3setINS0_12NodeTemplateILb1EEESt4lessIS8_ESaIS8_EE(ptr noundef nonnull align 8 dereferenceable(1856) %this, ptr noundef %m, ptr noundef nonnull align 8 dereferenceable(48) %termSet) unnamed_addr #3 align 2 {
entry:
  %d_im = getelementptr inbounds i8, ptr %this, i64 496
  %call = tail call noundef zeroext i1 @_ZNK4cvc58internal6theory24InferenceManagerBuffered15hasPendingLemmaEv(ptr noundef nonnull align 8 dereferenceable(353) %d_im)
  br i1 %call, label %return, label %if.end

if.end:                                           ; preds = %entry
  %vtable = load ptr, ptr %this, align 8
  %vfn = getelementptr inbounds i8, ptr %vtable, i64 184
  %0 = load ptr, ptr %vfn, align 8
  %call2 = tail call noundef zeroext i1 %0(ptr noundef nonnull align 8 dereferenceable(1856) %this, ptr noundef %m, ptr noundef nonnull align 8 dereferenceable(48) %termSet)
  br label %return

return:                                           ; preds = %entry, %if.end
  %retval.0 = phi i1 [ %call2, %if.end ], [ true, %entry ]
  ret i1 %retval.0
}